target datalayout = "e-m:e-p270:32:32-p271:32:32-p272:64:64-i64:64-i128:128-f80:128-n8:16:32:64-S128"
target triple = "x86_64-pc-linux-gnu"

%struct.sqlite3_index_info = type { i32, ptr, i32, ptr, ptr, i32, ptr, i32, i32, double, i64, i32, i64 }
%struct.sqlite3_index_constraint = type { i32, i8, i8, i32 }
%struct.sqlite3_index_constraint_usage = type { i32, i8 }

; Function Attrs: nounwind uwtable
define internal i32 @fsdirBestIndex(ptr noundef %0, ptr noundef %1) #0 {
  %3 = alloca i32, align 4
  %4 = alloca ptr, align 8
  %5 = alloca ptr, align 8
  %6 = alloca i32, align 4
  %7 = alloca i32, align 4
  %8 = alloca i32, align 4
  %9 = alloca i32, align 4
  %10 = alloca i32, align 4
  %11 = alloca ptr, align 8
  %12 = alloca i32, align 4
  store ptr %0, ptr %4, align 8, !tbaa !612
  store ptr %1, ptr %5, align 8, !tbaa !614
  call void @llvm.lifetime.start.p0(i64 4, ptr %6) #14
  call void @llvm.lifetime.start.p0(i64 4, ptr %7) #14
  store i32 -1, ptr %7, align 4, !tbaa !3
  call void @llvm.lifetime.start.p0(i64 4, ptr %8) #14
  store i32 -1, ptr %8, align 4, !tbaa !3
  call void @llvm.lifetime.start.p0(i64 4, ptr %9) #14
  store i32 0, ptr %9, align 4, !tbaa !3
  call void @llvm.lifetime.start.p0(i64 4, ptr %10) #14
  store i32 0, ptr %10, align 4, !tbaa !3
  call void @llvm.lifetime.start.p0(i64 8, ptr %11) #14
  %13 = load ptr, ptr %5, align 8, !tbaa !614
  %14 = getelementptr inbounds nuw %struct.sqlite3_index_info, ptr %13, i32 0, i32 1
  %15 = load ptr, ptr %14, align 8, !tbaa !616
  store ptr %15, ptr %11, align 8, !tbaa !621
  store i32 0, ptr %6, align 4, !tbaa !3
  br label %16

16:                                               ; preds = %60, %2
  %17 = load i32, ptr %6, align 4, !tbaa !3
  %18 = load ptr, ptr %5, align 8, !tbaa !614
  %19 = getelementptr inbounds nuw %struct.sqlite3_index_info, ptr %18, i32 0, i32 0
  %20 = load i32, ptr %19, align 8, !tbaa !622
  %21 = icmp slt i32 %17, %20
  br i1 %21, label %22, label %65

22:                                               ; preds = %16
  %23 = load ptr, ptr %11, align 8, !tbaa !621
  %24 = getelementptr inbounds nuw %struct.sqlite3_index_constraint, ptr %23, i32 0, i32 1
  %25 = load i8, ptr %24, align 4, !tbaa !623
  %26 = zext i8 %25 to i32
  %27 = icmp ne i32 %26, 2
  br i1 %27, label %28, label %29

28:                                               ; preds = %22
  br label %60

29:                                               ; preds = %22
  %30 = load ptr, ptr %11, align 8, !tbaa !621
  %31 = getelementptr inbounds nuw %struct.sqlite3_index_constraint, ptr %30, i32 0, i32 0
  %32 = load i32, ptr %31, align 4, !tbaa !626
  switch i32 %32, label %59 [
    i32 4, label %33
    i32 5, label %46
  ]

33:                                               ; preds = %29
  %34 = load ptr, ptr %11, align 8, !tbaa !621
  %35 = getelementptr inbounds nuw %struct.sqlite3_index_constraint, ptr %34, i32 0, i32 2
  %36 = load i8, ptr %35, align 1, !tbaa !625
  %37 = icmp ne i8 %36, 0
  br i1 %37, label %38, label %40

38:                                               ; preds = %33
  %39 = load i32, ptr %6, align 4, !tbaa !3
  store i32 %39, ptr %7, align 4, !tbaa !3
  store i32 0, ptr %9, align 4, !tbaa !3
  br label %45

40:                                               ; preds = %33
  %41 = load i32, ptr %7, align 4, !tbaa !3
  %42 = icmp slt i32 %41, 0
  br i1 %42, label %43, label %44

43:                                               ; preds = %40
  store i32 1, ptr %9, align 4, !tbaa !3
  br label %44

44:                                               ; preds = %43, %40
  br label %45

45:                                               ; preds = %44, %38
  br label %59

46:                                               ; preds = %29
  %47 = load ptr, ptr %11, align 8, !tbaa !621
  %48 = getelementptr inbounds nuw %struct.sqlite3_index_constraint, ptr %47, i32 0, i32 2
  %49 = load i8, ptr %48, align 1, !tbaa !625
  %50 = icmp ne i8 %49, 0
  br i1 %50, label %51, label %53

51:                                               ; preds = %46
  %52 = load i32, ptr %6, align 4, !tbaa !3
  store i32 %52, ptr %8, align 4, !tbaa !3
  store i32 0, ptr %10, align 4, !tbaa !3
  br label %58

53:                                               ; preds = %46
  %54 = load i32, ptr %8, align 4, !tbaa !3
  %55 = icmp slt i32 %54, 0
  br i1 %55, label %56, label %57

56:                                               ; preds = %53
  store i32 1, ptr %10, align 4, !tbaa !3
  br label %57

57:                                               ; preds = %56, %53
  br label %58

58:                                               ; preds = %57, %51
  br label %59

59:                                               ; preds = %29, %58, %45
  br label %60

60:                                               ; preds = %59, %28
  %61 = load i32, ptr %6, align 4, !tbaa !3
  %62 = add nsw i32 %61, 1
  store i32 %62, ptr %6, align 4, !tbaa !3
  %63 = load ptr, ptr %11, align 8, !tbaa !621
  %64 = getelementptr inbounds nuw %struct.sqlite3_index_constraint, ptr %63, i32 1
  store ptr %64, ptr %11, align 8, !tbaa !621
  br label %16, !llvm.loop !728

65:                                               ; preds = %16
  %66 = load i32, ptr %9, align 4, !tbaa !3
  %67 = icmp ne i32 %66, 0
  br i1 %67, label %71, label %68

68:                                               ; preds = %65
  %69 = load i32, ptr %10, align 4, !tbaa !3
  %70 = icmp ne i32 %69, 0
  br i1 %70, label %71, label %72

71:                                               ; preds = %68, %65
  store i32 19, ptr %3, align 4
  store i32 1, ptr %12, align 4
  br label %123

72:                                               ; preds = %68
  %73 = load i32, ptr %7, align 4, !tbaa !3
  %74 = icmp slt i32 %73, 0
  br i1 %74, label %75, label %80

75:                                               ; preds = %72
  %76 = load ptr, ptr %5, align 8, !tbaa !614
  %77 = getelementptr inbounds nuw %struct.sqlite3_index_info, ptr %76, i32 0, i32 5
  store i32 0, ptr %77, align 8, !tbaa !644
  %78 = load ptr, ptr %5, align 8, !tbaa !614
  %79 = getelementptr inbounds nuw %struct.sqlite3_index_info, ptr %78, i32 0, i32 10
  store i64 2147483647, ptr %79, align 8, !tbaa !637
  br label %122

80:                                               ; preds = %72
  %81 = load ptr, ptr %5, align 8, !tbaa !614
  %82 = getelementptr inbounds nuw %struct.sqlite3_index_info, ptr %81, i32 0, i32 4
  %83 = load ptr, ptr %82, align 8, !tbaa !628
  %84 = load i32, ptr %7, align 4, !tbaa !3
  %85 = sext i32 %84 to i64
  %86 = getelementptr inbounds %struct.sqlite3_index_constraint_usage, ptr %83, i64 %85
  %87 = getelementptr inbounds nuw %struct.sqlite3_index_constraint_usage, ptr %86, i32 0, i32 1
  store i8 1, ptr %87, align 4, !tbaa !631
  %88 = load ptr, ptr %5, align 8, !tbaa !614
  %89 = getelementptr inbounds nuw %struct.sqlite3_index_info, ptr %88, i32 0, i32 4
  %90 = load ptr, ptr %89, align 8, !tbaa !628
  %91 = load i32, ptr %7, align 4, !tbaa !3
  %92 = sext i32 %91 to i64
  %93 = getelementptr inbounds %struct.sqlite3_index_constraint_usage, ptr %90, i64 %92
  %94 = getelementptr inbounds nuw %struct.sqlite3_index_constraint_usage, ptr %93, i32 0, i32 0
  store i32 1, ptr %94, align 4, !tbaa !629
  %95 = load i32, ptr %8, align 4, !tbaa !3
  %96 = icmp sge i32 %95, 0
  br i1 %96, label %97, label %116

97:                                               ; preds = %80
  %98 = load ptr, ptr %5, align 8, !tbaa !614
  %99 = getelementptr inbounds nuw %struct.sqlite3_index_info, ptr %98, i32 0, i32 4
  %100 = load ptr, ptr %99, align 8, !tbaa !628
  %101 = load i32, ptr %8, align 4, !tbaa !3
  %102 = sext i32 %101 to i64
  %103 = getelementptr inbounds %struct.sqlite3_index_constraint_usage, ptr %100, i64 %102
  %104 = getelementptr inbounds nuw %struct.sqlite3_index_constraint_usage, ptr %103, i32 0, i32 1
  store i8 1, ptr %104, align 4, !tbaa !631
  %105 = load ptr, ptr %5, align 8, !tbaa !614
  %106 = getelementptr inbounds nuw %struct.sqlite3_index_info, ptr %105, i32 0, i32 4
  %107 = load ptr, ptr %106, align 8, !tbaa !628
  %108 = load i32, ptr %8, align 4, !tbaa !3
  %109 = sext i32 %108 to i64
  %110 = getelementptr inbounds %struct.sqlite3_index_constraint_usage, ptr %107, i64 %109
  %111 = getelementptr inbounds nuw %struct.sqlite3_index_constraint_usage, ptr %110, i32 0, i32 0
  store i32 2, ptr %111, align 4, !tbaa !629
  %112 = load ptr, ptr %5, align 8, !tbaa !614
  %113 = getelementptr inbounds nuw %struct.sqlite3_index_info, ptr %112, i32 0, i32 5
  store i32 2, ptr %113, align 8, !tbaa !644
  %114 = load ptr, ptr %5, align 8, !tbaa !614
  %115 = getelementptr inbounds nuw %struct.sqlite3_index_info, ptr %114, i32 0, i32 9
  store double 1.000000e+01, ptr %115, align 8, !tbaa !636
  br label %121

116:                                              ; preds = %80
  %117 = load ptr, ptr %5, align 8, !tbaa !614
  %118 = getelementptr inbounds nuw %struct.sqlite3_index_info, ptr %117, i32 0, i32 5
  store i32 1, ptr %118, align 8, !tbaa !644
  %119 = load ptr, ptr %5, align 8, !tbaa !614
  %120 = getelementptr inbounds nuw %struct.sqlite3_index_info, ptr %119, i32 0, i32 9
  store double 1.000000e+02, ptr %120, align 8, !tbaa !636
  br label %121

121:                                              ; preds = %116, %97
  br label %122

122:                                              ; preds = %121, %75
  store i32 0, ptr %3, align 4
  store i32 1, ptr %12, align 4
  br label %123

123:                                              ; preds = %122, %71
  call void @llvm.lifetime.end.p0(i64 8, ptr %11) #14
  call void @llvm.lifetime.end.p0(i64 4, ptr %10) #14
  call void @llvm.lifetime.end.p0(i64 4, ptr %9) #14
  call void @llvm.lifetime.end.p0(i64 4, ptr %8) #14
  call void @llvm.lifetime.end.p0(i64 4, ptr %7) #14
  call void @llvm.lifetime.end.p0(i64 4, ptr %6) #14
  %124 = load i32, ptr %3, align 4
  ret i32 %124
}