; Function Attrs: nofree norecurse nosync nounwind memory(readwrite, inaccessiblemem: none) uwtable
define internal range(i32 0, 20) i32 @fsdirBestIndex(ptr readnone captures(none) %0, ptr noundef captures(none) %1) #32 {
  %3 = load i32, ptr %1, align 8, !tbaa !719
  %4 = icmp sgt i32 %3, 0
  br i1 %4, label %.lr.ph.preheader, label %.thread

.lr.ph.preheader:                                 ; preds = %2
  %5 = getelementptr inbounds nuw i8, ptr %1, i64 8
  %6 = load ptr, ptr %5, align 8, !tbaa !724
  br label %.lr.ph

.lr.ph:                                           ; preds = %.lr.ph.preheader, %21
  %.049 = phi ptr [ %23, %21 ], [ %6, %.lr.ph.preheader ]
  %.03248 = phi i32 [ %.1, %21 ], [ 0, %.lr.ph.preheader ]
  %.03347 = phi i32 [ %.134, %21 ], [ 0, %.lr.ph.preheader ]
  %.03546 = phi i32 [ %.136, %21 ], [ -1, %.lr.ph.preheader ]
  %.03745 = phi i32 [ %.138, %21 ], [ -1, %.lr.ph.preheader ]
  %.03944 = phi i32 [ %22, %21 ], [ 0, %.lr.ph.preheader ]
  %7 = getelementptr inbounds nuw i8, ptr %.049, i64 4
  %8 = load i8, ptr %7, align 4, !tbaa !725
  %.not = icmp eq i8 %8, 2
  br i1 %.not, label %9, label %21

9:                                                ; preds = %.lr.ph
  %10 = load i32, ptr %.049, align 4, !tbaa !728
  switch i32 %10, label %21 [
    i32 4, label %11
    i32 5, label %16
  ]

11:                                               ; preds = %9
  %12 = getelementptr inbounds nuw i8, ptr %.049, i64 5
  %13 = load i8, ptr %12, align 1, !tbaa !727
  %.not42 = icmp eq i8 %13, 0
  br i1 %.not42, label %14, label %21

14:                                               ; preds = %11
  %15 = icmp slt i32 %.03745, 0
  %spec.select = select i1 %15, i32 1, i32 %.03347
  br label %21

16:                                               ; preds = %9
  %17 = getelementptr inbounds nuw i8, ptr %.049, i64 5
  %18 = load i8, ptr %17, align 1, !tbaa !727
  %.not41 = icmp eq i8 %18, 0
  br i1 %.not41, label %19, label %21

19:                                               ; preds = %16
  %20 = icmp slt i32 %.03546, 0
  %spec.select43 = select i1 %20, i32 1, i32 %.03248
  br label %21

21:                                               ; preds = %19, %14, %16, %11, %9, %.lr.ph
  %.138 = phi i32 [ %.03745, %.lr.ph ], [ %.03745, %9 ], [ %.03944, %11 ], [ %.03745, %14 ], [ %.03745, %16 ], [ %.03745, %19 ]
  %.136 = phi i32 [ %.03546, %.lr.ph ], [ %.03546, %9 ], [ %.03546, %11 ], [ %.03546, %14 ], [ %.03944, %16 ], [ %.03546, %19 ]
  %.134 = phi i32 [ %.03347, %.lr.ph ], [ %.03347, %9 ], [ 0, %11 ], [ %spec.select, %14 ], [ %.03347, %16 ], [ %.03347, %19 ]
  %.1 = phi i32 [ %.03248, %.lr.ph ], [ %.03248, %9 ], [ %.03248, %11 ], [ %.03248, %14 ], [ 0, %16 ], [ %spec.select43, %19 ]
  %22 = add nuw nsw i32 %.03944, 1
  %23 = getelementptr inbounds nuw i8, ptr %.049, i64 12
  %exitcond.not = icmp eq i32 %22, %3
  br i1 %exitcond.not, label %._crit_edge, label %.lr.ph, !llvm.loop !781

._crit_edge:                                      ; preds = %21
  %24 = icmp ne i32 %.134, 0
  %25 = icmp ne i32 %.1, 0
  %26 = select i1 %24, i1 true, i1 %25
  br i1 %26, label %47, label %27

27:                                               ; preds = %._crit_edge
  %28 = icmp slt i32 %.138, 0
  br i1 %28, label %.thread, label %31

.thread:                                          ; preds = %2, %27
  %29 = getelementptr inbounds nuw i8, ptr %1, i64 40
  store i32 0, ptr %29, align 8, !tbaa !746
  %30 = getelementptr inbounds nuw i8, ptr %1, i64 72
  store i64 2147483647, ptr %30, align 8, !tbaa !739
  br label %47

31:                                               ; preds = %27
  %32 = getelementptr inbounds nuw i8, ptr %1, i64 32
  %33 = load ptr, ptr %32, align 8, !tbaa !730
  %34 = zext nneg i32 %.138 to i64
  %35 = getelementptr inbounds nuw %struct.sqlite3_index_constraint_usage, ptr %33, i64 %34, i32 1
  store i8 1, ptr %35, align 4, !tbaa !733
  %36 = getelementptr inbounds nuw %struct.sqlite3_index_constraint_usage, ptr %33, i64 %34
  store i32 1, ptr %36, align 4, !tbaa !731
  %37 = icmp sgt i32 %.136, -1
  br i1 %37, label %38, label %44

38:                                               ; preds = %31
  %39 = zext nneg i32 %.136 to i64
  %40 = getelementptr inbounds nuw %struct.sqlite3_index_constraint_usage, ptr %33, i64 %39, i32 1
  store i8 1, ptr %40, align 4, !tbaa !733
  %41 = getelementptr inbounds nuw %struct.sqlite3_index_constraint_usage, ptr %33, i64 %39
  store i32 2, ptr %41, align 4, !tbaa !731
  %42 = getelementptr inbounds nuw i8, ptr %1, i64 40
  store i32 2, ptr %42, align 8, !tbaa !746
  %43 = getelementptr inbounds nuw i8, ptr %1, i64 64
  store double 1.000000e+01, ptr %43, align 8, !tbaa !738
  br label %47

44:                                               ; preds = %31
  %45 = getelementptr inbounds nuw i8, ptr %1, i64 40
  store i32 1, ptr %45, align 8, !tbaa !746
  %46 = getelementptr inbounds nuw i8, ptr %1, i64 64
  store double 1.000000e+02, ptr %46, align 8, !tbaa !738
  br label %47

47:                                               ; preds = %.thread, %44, %38, %._crit_edge
  %.040 = phi i32 [ 19, %._crit_edge ], [ 0, %38 ], [ 0, %44 ], [ 0, %.thread ]
  ret i32 %.040
}